; Function Attrs: mustprogress uwtable
define void @_ZN9grpc_core8channelz14SubchannelNodeC2ENSt7__cxx1112basic_stringIcSt11char_traitsIcESaIcEEEm(ptr noundef nonnull align 8 dereferenceable(216) %this, ptr noundef nonnull %target_address, i64 noundef %channel_tracer_max_nodes) unnamed_addr #3 align 2 personality ptr @__gxx_personality_v0 {
entry:
  %agg.tmp = alloca %"class.std::__cxx11::basic_string", align 8
  call void @_ZNSt7__cxx1112basic_stringIcSt11char_traitsIcESaIcEEC1ERKS4_(ptr noundef nonnull align 8 dereferenceable(32) %agg.tmp, ptr noundef nonnull align 8 dereferenceable(32) %target_address)
  invoke void @_ZN9grpc_core8channelz8BaseNodeC2ENS1_10EntityTypeENSt7__cxx1112basic_stringIcSt11char_traitsIcESaIcEEE(ptr noundef nonnull align 8 dereferenceable(64) %this, i32 noundef 2, ptr noundef nonnull %agg.tmp)
          to label %invoke.cont unwind label %lpad

invoke.cont:                                      ; preds = %entry
  call void @_ZNSt7__cxx1112basic_stringIcSt11char_traitsIcESaIcEED1Ev(ptr noundef nonnull align 8 dereferenceable(32) %agg.tmp) #16
  store ptr getelementptr inbounds ({ [5 x ptr] }, ptr @_ZTVN9grpc_core8channelz14SubchannelNodeE, i64 0, i32 0, i64 2), ptr %this, align 8
  %connectivity_state_ = getelementptr inbounds i8, ptr %this, i64 64
  store i32 0, ptr %connectivity_state_, align 8
  %socket_mu_ = getelementptr inbounds i8, ptr %this, i64 72
  %target_ = getelementptr inbounds i8, ptr %this, i64 88
  call void @llvm.memset.p0.i64(ptr noundef nonnull align 8 dereferenceable(16) %socket_mu_, i8 0, i64 16, i1 false)
  call void @_ZNSt7__cxx1112basic_stringIcSt11char_traitsIcESaIcEEC1EOS4_(ptr noundef nonnull align 8 dereferenceable(32) %target_, ptr noundef nonnull align 8 dereferenceable(32) %target_address) #16
  %call_counter_ = getelementptr inbounds i8, ptr %this, i64 120
  call void @llvm.memset.p0.i64(ptr noundef nonnull align 8 dereferenceable(32) %call_counter_, i8 0, i64 32, i1 false)
  %trace_ = getelementptr inbounds i8, ptr %this, i64 152
  invoke void @_ZN9grpc_core8channelz12ChannelTraceC1Em(ptr noundef nonnull align 8 dereferenceable(64) %trace_, i64 noundef %channel_tracer_max_nodes)
          to label %invoke.cont7 unwind label %lpad6

invoke.cont7:                                     ; preds = %invoke.cont
  ret void

lpad:                                             ; preds = %entry
  %0 = landingpad { ptr, i32 }
          cleanup
  call void @_ZNSt7__cxx1112basic_stringIcSt11char_traitsIcESaIcEED1Ev(ptr noundef nonnull align 8 dereferenceable(32) %agg.tmp) #16
  br label %eh.resume

lpad6:                                            ; preds = %invoke.cont
  %1 = landingpad { ptr, i32 }
          cleanup
  %child_socket_ = getelementptr inbounds i8, ptr %this, i64 80
  call void @_ZNSt7__cxx1112basic_stringIcSt11char_traitsIcESaIcEED1Ev(ptr noundef nonnull align 8 dereferenceable(32) %target_) #16
  %2 = load ptr, ptr %child_socket_, align 8
  %cmp.not.i = icmp eq ptr %2, null
  br i1 %cmp.not.i, label %_ZN9grpc_core13RefCountedPtrINS_8channelz10SocketNodeEED2Ev.exit, label %if.then.i

if.then.i:                                        ; preds = %lpad6
  %refs_.i.i = getelementptr inbounds i8, ptr %2, i64 8
  %3 = atomicrmw sub ptr %refs_.i.i, i64 1 acq_rel, align 8
  %cmp.i.i.i = icmp eq i64 %3, 1
  br i1 %cmp.i.i.i, label %if.then.i.i, label %_ZN9grpc_core13RefCountedPtrINS_8channelz10SocketNodeEED2Ev.exit

if.then.i.i:                                      ; preds = %if.then.i
  %vtable.i.i.i = load ptr, ptr %2, align 8
  %vfn.i.i.i = getelementptr inbounds i8, ptr %vtable.i.i.i, i64 8
  %4 = load ptr, ptr %vfn.i.i.i, align 8
  call void %4(ptr noundef nonnull align 8 dereferenceable(64) %2) #16
  br label %_ZN9grpc_core13RefCountedPtrINS_8channelz10SocketNodeEED2Ev.exit

_ZN9grpc_core13RefCountedPtrINS_8channelz10SocketNodeEED2Ev.exit: ; preds = %lpad6, %if.then.i, %if.then.i.i
  call void @_ZN4absl12lts_202308025MutexD1Ev(ptr noundef nonnull align 8 dereferenceable(8) %socket_mu_) #16
  call void @_ZN9grpc_core8channelz8BaseNodeD2Ev(ptr noundef nonnull align 8 dereferenceable(64) %this) #16
  br label %eh.resume

eh.resume:                                        ; preds = %_ZN9grpc_core13RefCountedPtrINS_8channelz10SocketNodeEED2Ev.exit, %lpad
  %.pn = phi { ptr, i32 } [ %1, %_ZN9grpc_core13RefCountedPtrINS_8channelz10SocketNodeEED2Ev.exit ], [ %0, %lpad ]
  resume { ptr, i32 } %.pn
}